target datalayout = "e-m:e-p270:32:32-p271:32:32-p272:64:64-i64:64-i128:128-f80:128-n8:16:32:64-S128"
target triple = "x86_64-unknown-linux-gnu"

%"class.sat::literal" = type { i32 }
%"struct.smt::theory_special_relations::relation" = type { ptr, %class.obj_ref, i32, ptr, %class.ptr_vector, i32, %class.svector, %"struct.smt::theory_special_relations::graph", %class.union_find_default_ctx, %class.union_find, %class.svector.16 }
%class.obj_ref = type { ptr, ptr }
%class.ptr_vector = type { %class.vector }
%class.vector = type { ptr }
%class.svector = type { %class.vector.0 }
%class.vector.0 = type { ptr }
%"struct.smt::theory_special_relations::graph" = type { %class.dl_graph }
%class.dl_graph = type { %"struct.dl_graph<smt::theory_special_relations::int_ext>::stats", %class.vector.1, %class.vector.2, %class.vector.3, %class.vector.4, %class.vector.4, %class.svector.5, %class.vector.1, %class.svector.7, %class.svector.9, %class.svector.9, %class.heap, i32, i32, %class.svector.9, %class.svector.7, %class.svector.9, %class.svector.9, %class.svector.9, i32, i32, %class.svector.11, %class.svector.9, i32, i32, %class.svector.9, %class.svector.9, %class.svector.9, %class.svector.9, %"struct.dl_graph<smt::theory_special_relations::int_ext>::dfs_state", %"struct.dl_graph<smt::theory_special_relations::int_ext>::dfs_state" }
%"struct.dl_graph<smt::theory_special_relations::int_ext>::stats" = type { i32, i32, i32, i32, i32 }
%class.vector.2 = type { ptr }
%class.vector.3 = type { ptr }
%class.vector.4 = type { ptr }
%class.svector.5 = type { %class.vector.6 }
%class.vector.6 = type { ptr }
%class.vector.1 = type { ptr }
%class.heap = type { %class.dl_var_lt, %class.svector.9, %class.svector.9 }
%class.dl_var_lt = type { ptr }
%class.svector.7 = type { %class.vector.8 }
%class.vector.8 = type { ptr }
%class.svector.11 = type { %class.vector.12 }
%class.vector.12 = type { ptr }
%class.svector.9 = type { %class.vector.10 }
%class.vector.10 = type { ptr }
%"struct.dl_graph<smt::theory_special_relations::int_ext>::dfs_state" = type <{ %class.vector.1, %class.svector.9, %class.svector.9, %class.heap.13, i32, [4 x i8] }>
%class.heap.13 = type { %"class.dl_graph<smt::theory_special_relations::int_ext>::dfs_state::hp_lt", %class.svector.9, %class.svector.9 }
%"class.dl_graph<smt::theory_special_relations::int_ext>::dfs_state::hp_lt" = type { ptr, ptr }
%class.union_find_default_ctx = type { %class.trail_stack }
%class.trail_stack = type { %class.ptr_vector.14, %class.svector.11, %class.region }
%class.ptr_vector.14 = type { %class.vector.15 }
%class.vector.15 = type { ptr }
%class.region = type { ptr, ptr, ptr, ptr, ptr }
%class.union_find = type { ptr, ptr, %class.svector.11, %class.svector.11, %class.svector.11, %"class.union_find<>::mk_var_trail" }
%"class.union_find<>::mk_var_trail" = type { %class.trail, ptr }
%class.trail = type { ptr }
%class.svector.16 = type { %class.vector.17 }
%class.vector.17 = type { ptr }
%"class.smt::theory_special_relations::atom" = type <{ i32, [4 x i8], ptr, i8, [3 x i8], i32, i32, i32, i32, [4 x i8] }>

; Function Attrs: mustprogress nounwind uwtable
define linkonce_odr hidden void @_ZN3sat7literalC2Ejb(ptr noundef nonnull align 4 dereferenceable(4) %this, i32 noundef %v, i1 noundef zeroext %_sign) unnamed_addr #4 comdat align 2 {
entry:
  %this.addr = alloca ptr, align 8
  %v.addr = alloca i32, align 4
  %_sign.addr = alloca i8, align 1
  store ptr %this, ptr %this.addr, align 8
  store i32 %v, ptr %v.addr, align 4
  %frombool = zext i1 %_sign to i8
  store i8 %frombool, ptr %_sign.addr, align 1
  %this1 = load ptr, ptr %this.addr, align 8
  %m_val = getelementptr inbounds %"class.sat::literal", ptr %this1, i32 0, i32 0
  %0 = load i32, ptr %v.addr, align 4
  %shl = shl i32 %0, 1
  %1 = load i8, ptr %_sign.addr, align 1
  %tobool = trunc i8 %1 to i1
  %conv = zext i1 %tobool to i32
  %add = add i32 %shl, %conv
  store i32 %add, ptr %m_val, align 4
  ret void
}

; Function Attrs: mustprogress nounwind uwtable
define linkonce_odr hidden noundef i32 @_ZNK6vectorIPN3smt24theory_special_relations4atomELb0EjE4sizeEv(ptr noundef nonnull align 8 dereferenceable(8) %this) #4 comdat align 2 {
entry:
  %retval = alloca i32, align 4
  %this.addr = alloca ptr, align 8
  store ptr %this, ptr %this.addr, align 8
  %this1 = load ptr, ptr %this.addr, align 8
  %m_data = getelementptr inbounds %class.vector, ptr %this1, i32 0, i32 0
  %0 = load ptr, ptr %m_data, align 8
  %cmp = icmp eq ptr %0, null
  br i1 %cmp, label %if.then, label %if.end

if.then:                                          ; preds = %entry
  store i32 0, ptr %retval, align 4
  br label %return

if.end:                                           ; preds = %entry
  %m_data2 = getelementptr inbounds %class.vector, ptr %this1, i32 0, i32 0
  %1 = load ptr, ptr %m_data2, align 8
  %arrayidx = getelementptr inbounds i32, ptr %1, i64 -1
  %2 = load i32, ptr %arrayidx, align 4
  store i32 %2, ptr %retval, align 4
  br label %return

return:                                           ; preds = %if.end, %if.then
  %3 = load i32, ptr %retval, align 4
  ret i32 %3
}

; Function Attrs: mustprogress uwtable
define linkonce_odr hidden noundef nonnull align 8 dereferenceable(8) ptr @_ZN6vectorIN3sat7literalELb0EjE9push_backEOS1_(ptr noundef nonnull align 8 dereferenceable(8) %this, ptr noundef nonnull align 4 dereferenceable(4) %elem) #5 comdat align 2 {
entry:
  %this.addr = alloca ptr, align 8
  %elem.addr = alloca ptr, align 8
  store ptr %this, ptr %this.addr, align 8
  store ptr %elem, ptr %elem.addr, align 8
  %this1 = load ptr, ptr %this.addr, align 8
  %m_data = getelementptr inbounds %class.vector.17, ptr %this1, i32 0, i32 0
  %0 = load ptr, ptr %m_data, align 8
  %cmp = icmp eq ptr %0, null
  br i1 %cmp, label %if.then, label %lor.lhs.false

lor.lhs.false:                                    ; preds = %entry
  %m_data2 = getelementptr inbounds %class.vector.17, ptr %this1, i32 0, i32 0
  %1 = load ptr, ptr %m_data2, align 8
  %arrayidx = getelementptr inbounds i32, ptr %1, i64 -1
  %2 = load i32, ptr %arrayidx, align 4
  %m_data3 = getelementptr inbounds %class.vector.17, ptr %this1, i32 0, i32 0
  %3 = load ptr, ptr %m_data3, align 8
  %arrayidx4 = getelementptr inbounds i32, ptr %3, i64 -2
  %4 = load i32, ptr %arrayidx4, align 4
  %cmp5 = icmp eq i32 %2, %4
  br i1 %cmp5, label %if.then, label %if.end

if.then:                                          ; preds = %lor.lhs.false, %entry
  call void @_ZN6vectorIN3sat7literalELb0EjE13expand_vectorEv(ptr noundef nonnull align 8 dereferenceable(8) %this1)
  br label %if.end

if.end:                                           ; preds = %if.then, %lor.lhs.false
  %m_data6 = getelementptr inbounds %class.vector.17, ptr %this1, i32 0, i32 0
  %5 = load ptr, ptr %m_data6, align 8
  %m_data7 = getelementptr inbounds %class.vector.17, ptr %this1, i32 0, i32 0
  %6 = load ptr, ptr %m_data7, align 8
  %arrayidx8 = getelementptr inbounds i32, ptr %6, i64 -1
  %7 = load i32, ptr %arrayidx8, align 4
  %idx.ext = zext i32 %7 to i64
  %add.ptr = getelementptr inbounds %"class.sat::literal", ptr %5, i64 %idx.ext
  %8 = load ptr, ptr %elem.addr, align 8
  call void @llvm.memcpy.p0.p0.i64(ptr align 4 %add.ptr, ptr align 4 %8, i64 4, i1 false)
  %m_data9 = getelementptr inbounds %class.vector.17, ptr %this1, i32 0, i32 0
  %9 = load ptr, ptr %m_data9, align 8
  %arrayidx10 = getelementptr inbounds i32, ptr %9, i64 -1
  %10 = load i32, ptr %arrayidx10, align 4
  %inc = add i32 %10, 1
  store i32 %inc, ptr %arrayidx10, align 4
  ret ptr %this1
}

; Function Attrs: mustprogress uwtable
define linkonce_odr hidden i32 @_ZNK3smt24theory_special_relations4atom11explanationEv(ptr noundef nonnull align 8 dereferenceable(36) %this) #5 comdat align 2 {
entry:
  %retval = alloca %"class.sat::literal", align 4
  %this.addr = alloca ptr, align 8
  store ptr %this, ptr %this.addr, align 8
  %this1 = load ptr, ptr %this.addr, align 8
  %m_bvar = getelementptr inbounds %"class.smt::theory_special_relations::atom", ptr %this1, i32 0, i32 0
  %0 = load i32, ptr %m_bvar, align 8
  %m_phase = getelementptr inbounds %"class.smt::theory_special_relations::atom", ptr %this1, i32 0, i32 3
  %1 = load i8, ptr %m_phase, align 8
  %tobool = trunc i8 %1 to i1
  %lnot = xor i1 %tobool, true
  call void @_ZN3sat7literalC2Ejb(ptr noundef nonnull align 4 dereferenceable(4) %retval, i32 noundef %0, i1 noundef zeroext %lnot)
  %coerce.dive = getelementptr inbounds %"class.sat::literal", ptr %retval, i32 0, i32 0
  %2 = load i32, ptr %coerce.dive, align 4
  ret i32 %2
}

; Function Attrs: mustprogress uwtable
define linkonce_odr hidden noundef zeroext i1 @_ZN8dl_graphIN3smt24theory_special_relations7int_extEE28find_shortest_reachable_pathINS1_8relationEEEbiijRT_(ptr noundef nonnull align 8 dereferenceable(368) %this, i32 noundef %source, i32 noundef %target, i32 noundef %timestamp, ptr noundef nonnull align 8 dereferenceable(552) %f) #5 comdat align 2 {
entry:
  %this.addr = alloca ptr, align 8
  %source.addr = alloca i32, align 4
  %target.addr = alloca i32, align 4
  %timestamp.addr = alloca i32, align 4
  %f.addr = alloca ptr, align 8
  store ptr %this, ptr %this.addr, align 8
  store i32 %source, ptr %source.addr, align 4
  store i32 %target, ptr %target.addr, align 4
  store i32 %timestamp, ptr %timestamp.addr, align 4
  store ptr %f, ptr %f.addr, align 8
  %this1 = load ptr, ptr %this.addr, align 8
  %0 = load i32, ptr %source.addr, align 4
  %1 = load i32, ptr %target.addr, align 4
  %2 = load i32, ptr %timestamp.addr, align 4
  %3 = load ptr, ptr %f.addr, align 8
  %call = call noundef zeroext i1 @_ZN8dl_graphIN3smt24theory_special_relations7int_extEE22find_shortest_path_auxINS1_8relationEEEbiijRT_b(ptr noundef nonnull align 8 dereferenceable(368) %this1, i32 noundef %0, i32 noundef %1, i32 noundef %2, ptr noundef nonnull align 8 dereferenceable(552) %3, i1 noundef zeroext false)
  ret i1 %call
}

; Function Attrs: mustprogress nounwind uwtable
define linkonce_odr hidden noundef i32 @_ZNK3smt24theory_special_relations4atom2v2Ev(ptr noundef nonnull align 8 dereferenceable(36) %this) #4 comdat align 2 {
entry:
  %this.addr = alloca ptr, align 8
  store ptr %this, ptr %this.addr, align 8
  %this1 = load ptr, ptr %this.addr, align 8
  %m_v2 = getelementptr inbounds %"class.smt::theory_special_relations::atom", ptr %this1, i32 0, i32 6
  %0 = load i32, ptr %m_v2, align 8
  ret i32 %0
}

; Function Attrs: mustprogress nounwind uwtable
define linkonce_odr hidden noundef i32 @_ZNK3smt24theory_special_relations4atom2v1Ev(ptr noundef nonnull align 8 dereferenceable(36) %this) #4 comdat align 2 {
entry:
  %this.addr = alloca ptr, align 8
  store ptr %this, ptr %this.addr, align 8
  %this1 = load ptr, ptr %this.addr, align 8
  %m_v1 = getelementptr inbounds %"class.smt::theory_special_relations::atom", ptr %this1, i32 0, i32 5
  %0 = load i32, ptr %m_v1, align 4
  ret i32 %0
}

; Function Attrs: mustprogress nounwind uwtable
define linkonce_odr hidden noundef i32 @_ZNK8dl_graphIN3smt24theory_special_relations7int_extEE13get_timestampEv(ptr noundef nonnull align 8 dereferenceable(368) %this) #4 comdat align 2 {
entry:
  %this.addr = alloca ptr, align 8
  store ptr %this, ptr %this.addr, align 8
  %this1 = load ptr, ptr %this.addr, align 8
  %m_timestamp = getelementptr inbounds %class.dl_graph, ptr %this1, i32 0, i32 12
  %0 = load i32, ptr %m_timestamp, align 8
  ret i32 %0
}

; Function Attrs: mustprogress nounwind uwtable
define linkonce_odr hidden void @_ZN6vectorIN3sat7literalELb0EjE5resetEv(ptr noundef nonnull align 8 dereferenceable(8) %this) #4 comdat align 2 {
entry:
  %this.addr = alloca ptr, align 8
  store ptr %this, ptr %this.addr, align 8
  %this1 = load ptr, ptr %this.addr, align 8
  %m_data = getelementptr inbounds %class.vector.17, ptr %this1, i32 0, i32 0
  %0 = load ptr, ptr %m_data, align 8
  %tobool = icmp ne ptr %0, null
  br i1 %tobool, label %if.then, label %if.end

if.then:                                          ; preds = %entry
  %m_data2 = getelementptr inbounds %class.vector.17, ptr %this1, i32 0, i32 0
  %1 = load ptr, ptr %m_data2, align 8
  %arrayidx = getelementptr inbounds i32, ptr %1, i64 -1
  store i32 0, ptr %arrayidx, align 4
  br label %if.end

if.end:                                           ; preds = %if.then, %entry
  ret void
}

; Function Attrs: mustprogress nounwind uwtable
define linkonce_odr hidden noundef zeroext i1 @_ZNK3smt24theory_special_relations4atom5phaseEv(ptr noundef nonnull align 8 dereferenceable(36) %this) #4 comdat align 2 {
entry:
  %this.addr = alloca ptr, align 8
  store ptr %this, ptr %this.addr, align 8
  %this1 = load ptr, ptr %this.addr, align 8
  %m_phase = getelementptr inbounds %"class.smt::theory_special_relations::atom", ptr %this1, i32 0, i32 3
  %0 = load i8, ptr %m_phase, align 8
  %tobool = trunc i8 %0 to i1
  ret i1 %tobool
}

; Function Attrs: mustprogress nounwind uwtable
define linkonce_odr hidden noundef ptr @_ZN6vectorIPN3smt24theory_special_relations4atomELb0EjE3endEv(ptr noundef nonnull align 8 dereferenceable(8) %this) #4 comdat align 2 {
entry:
  %this.addr = alloca ptr, align 8
  store ptr %this, ptr %this.addr, align 8
  %this1 = load ptr, ptr %this.addr, align 8
  %m_data = getelementptr inbounds %class.vector, ptr %this1, i32 0, i32 0
  %0 = load ptr, ptr %m_data, align 8
  %call = call noundef i32 @_ZNK6vectorIPN3smt24theory_special_relations4atomELb0EjE4sizeEv(ptr noundef nonnull align 8 dereferenceable(8) %this1)
  %idx.ext = zext i32 %call to i64
  %add.ptr = getelementptr inbounds ptr, ptr %0, i64 %idx.ext
  ret ptr %add.ptr
}

; Function Attrs: mustprogress nounwind uwtable
define linkonce_odr hidden noundef ptr @_ZN6vectorIPN3smt24theory_special_relations4atomELb0EjE5beginEv(ptr noundef nonnull align 8 dereferenceable(8) %this) #4 comdat align 2 {
entry:
  %this.addr = alloca ptr, align 8
  store ptr %this, ptr %this.addr, align 8
  %this1 = load ptr, ptr %this.addr, align 8
  %m_data = getelementptr inbounds %class.vector, ptr %this1, i32 0, i32 0
  %0 = load ptr, ptr %m_data, align 8
  ret ptr %0
}

; Function Attrs: mustprogress uwtable
define hidden noundef i32 @_ZN3smt24theory_special_relations14final_check_poERNS0_8relationE(ptr noundef nonnull align 8 dereferenceable(145) %this, ptr noundef nonnull align 8 dereferenceable(552) %r) #5 align 2 {
entry:
  %retval = alloca i32, align 4
  %this.addr = alloca ptr, align 8
  %r.addr = alloca ptr, align 8
  %__range1 = alloca ptr, align 8
  %__begin1 = alloca ptr, align 8
  %__end1 = alloca ptr, align 8
  %ap = alloca ptr, align 8
  %a = alloca ptr, align 8
  %timestamp = alloca i32, align 4
  %found_path = alloca i8, align 1
  %ref.tmp = alloca %"class.sat::literal", align 4
  store ptr %this, ptr %this.addr, align 8
  store ptr %r, ptr %r.addr, align 8
  %this1 = load ptr, ptr %this.addr, align 8
  %0 = load ptr, ptr %r.addr, align 8
  %m_asserted_atoms = getelementptr inbounds %"struct.smt::theory_special_relations::relation", ptr %0, i32 0, i32 4
  store ptr %m_asserted_atoms, ptr %__range1, align 8
  %1 = load ptr, ptr %__range1, align 8
  %call = call noundef ptr @_ZN6vectorIPN3smt24theory_special_relations4atomELb0EjE5beginEv(ptr noundef nonnull align 8 dereferenceable(8) %1)
  store ptr %call, ptr %__begin1, align 8
  %2 = load ptr, ptr %__range1, align 8
  %call2 = call noundef ptr @_ZN6vectorIPN3smt24theory_special_relations4atomELb0EjE3endEv(ptr noundef nonnull align 8 dereferenceable(8) %2)
  store ptr %call2, ptr %__end1, align 8
  br label %for.cond

for.cond:                                         ; preds = %for.inc, %entry
  %3 = load ptr, ptr %__begin1, align 8
  %4 = load ptr, ptr %__end1, align 8
  %cmp = icmp ne ptr %3, %4
  br i1 %cmp, label %for.body, label %for.end

for.body:                                         ; preds = %for.cond
  %5 = load ptr, ptr %__begin1, align 8
  %6 = load ptr, ptr %5, align 8
  store ptr %6, ptr %ap, align 8
  %7 = load ptr, ptr %ap, align 8
  store ptr %7, ptr %a, align 8
  %8 = load ptr, ptr %a, align 8
  %call3 = call noundef zeroext i1 @_ZNK3smt24theory_special_relations4atom5phaseEv(ptr noundef nonnull align 8 dereferenceable(36) %8)
  br i1 %call3, label %if.then, label %if.end

if.then:                                          ; preds = %for.body
  br label %for.inc

if.end:                                           ; preds = %for.body
  %9 = load ptr, ptr %r.addr, align 8
  %m_explanation = getelementptr inbounds %"struct.smt::theory_special_relations::relation", ptr %9, i32 0, i32 10
  call void @_ZN6vectorIN3sat7literalELb0EjE5resetEv(ptr noundef nonnull align 8 dereferenceable(8) %m_explanation)
  %10 = load ptr, ptr %r.addr, align 8
  %m_graph = getelementptr inbounds %"struct.smt::theory_special_relations::relation", ptr %10, i32 0, i32 7
  %call4 = call noundef i32 @_ZNK8dl_graphIN3smt24theory_special_relations7int_extEE13get_timestampEv(ptr noundef nonnull align 8 dereferenceable(368) %m_graph)
  store i32 %call4, ptr %timestamp, align 4
  %11 = load ptr, ptr %a, align 8
  %call5 = call noundef i32 @_ZNK3smt24theory_special_relations4atom2v1Ev(ptr noundef nonnull align 8 dereferenceable(36) %11)
  %12 = load ptr, ptr %a, align 8
  %call6 = call noundef i32 @_ZNK3smt24theory_special_relations4atom2v2Ev(ptr noundef nonnull align 8 dereferenceable(36) %12)
  %cmp7 = icmp eq i32 %call5, %call6
  br i1 %cmp7, label %lor.end, label %lor.rhs

lor.rhs:                                          ; preds = %if.end
  %13 = load ptr, ptr %r.addr, align 8
  %m_graph8 = getelementptr inbounds %"struct.smt::theory_special_relations::relation", ptr %13, i32 0, i32 7
  %14 = load ptr, ptr %a, align 8
  %call9 = call noundef i32 @_ZNK3smt24theory_special_relations4atom2v1Ev(ptr noundef nonnull align 8 dereferenceable(36) %14)
  %15 = load ptr, ptr %a, align 8
  %call10 = call noundef i32 @_ZNK3smt24theory_special_relations4atom2v2Ev(ptr noundef nonnull align 8 dereferenceable(36) %15)
  %16 = load i32, ptr %timestamp, align 4
  %17 = load ptr, ptr %r.addr, align 8
  %call11 = call noundef zeroext i1 @_ZN8dl_graphIN3smt24theory_special_relations7int_extEE28find_shortest_reachable_pathINS1_8relationEEEbiijRT_(ptr noundef nonnull align 8 dereferenceable(368) %m_graph8, i32 noundef %call9, i32 noundef %call10, i32 noundef %16, ptr noundef nonnull align 8 dereferenceable(552) %17)
  br label %lor.end

lor.end:                                          ; preds = %lor.rhs, %if.end
  %18 = phi i1 [ true, %if.end ], [ %call11, %lor.rhs ]
  %frombool = zext i1 %18 to i8
  store i8 %frombool, ptr %found_path, align 1
  %19 = load i8, ptr %found_path, align 1
  %tobool = trunc i8 %19 to i1
  br i1 %tobool, label %if.then12, label %if.end16

if.then12:                                        ; preds = %lor.end
  %20 = load ptr, ptr %r.addr, align 8
  %m_explanation13 = getelementptr inbounds %"struct.smt::theory_special_relations::relation", ptr %20, i32 0, i32 10
  %21 = load ptr, ptr %a, align 8
  %call14 = call i32 @_ZNK3smt24theory_special_relations4atom11explanationEv(ptr noundef nonnull align 8 dereferenceable(36) %21)
  %coerce.dive = getelementptr inbounds %"class.sat::literal", ptr %ref.tmp, i32 0, i32 0
  store i32 %call14, ptr %coerce.dive, align 4
  %call15 = call noundef nonnull align 8 dereferenceable(8) ptr @_ZN6vectorIN3sat7literalELb0EjE9push_backEOS1_(ptr noundef nonnull align 8 dereferenceable(8) %m_explanation13, ptr noundef nonnull align 4 dereferenceable(4) %ref.tmp)
  %22 = load ptr, ptr %r.addr, align 8
  call void @_ZN3smt24theory_special_relations12set_conflictERNS0_8relationE(ptr noundef nonnull align 8 dereferenceable(145) %this1, ptr noundef nonnull align 8 dereferenceable(552) %22)
  store i32 -1, ptr %retval, align 4
  br label %return

if.end16:                                         ; preds = %lor.end
  br label %for.inc

for.inc:                                          ; preds = %if.end16, %if.then
  %23 = load ptr, ptr %__begin1, align 8
  %incdec.ptr = getelementptr inbounds ptr, ptr %23, i32 1
  store ptr %incdec.ptr, ptr %__begin1, align 8
  br label %for.cond

for.end:                                          ; preds = %for.cond
  store i32 1, ptr %retval, align 4
  br label %return

return:                                           ; preds = %for.end, %if.then12
  %24 = load i32, ptr %retval, align 4
  ret i32 %24
}