; Function Attrs: mustprogress uwtable
define hidden noundef i32 @_ZN3smt24theory_special_relations14final_check_poERNS0_8relationE(ptr nocapture noundef nonnull readonly align 8 dereferenceable(145) %this, ptr noundef nonnull align 8 dereferenceable(552) %r) local_unnamed_addr #3 align 2 {
entry:
  %m_asserted_atoms = getelementptr inbounds i8, ptr %r, i64 40
  %0 = load ptr, ptr %m_asserted_atoms, align 8
  %cmp.i.i = icmp eq ptr %0, null
  br i1 %cmp.i.i, label %return, label %_ZN6vectorIPN3smt24theory_special_relations4atomELb0EjE3endEv.exit

_ZN6vectorIPN3smt24theory_special_relations4atomELb0EjE3endEv.exit: ; preds = %entry
  %arrayidx.i.i = getelementptr inbounds i8, ptr %0, i64 -4
  %1 = load i32, ptr %arrayidx.i.i, align 4
  %2 = zext i32 %1 to i64
  %add.ptr.i = getelementptr inbounds ptr, ptr %0, i64 %2
  %cmp.not22 = icmp eq i32 %1, 0
  br i1 %cmp.not22, label %return, label %for.body.lr.ph

for.body.lr.ph:                                   ; preds = %_ZN6vectorIPN3smt24theory_special_relations4atomELb0EjE3endEv.exit
  %m_explanation = getelementptr inbounds i8, ptr %r, i64 544
  %m_timestamp.i = getelementptr inbounds i8, ptr %r, i64 192
  %m_graph = getelementptr inbounds i8, ptr %r, i64 64
  br label %for.body

for.body:                                         ; preds = %for.body.lr.ph, %for.inc
  %__begin1.023 = phi ptr [ %0, %for.body.lr.ph ], [ %incdec.ptr, %for.inc ]
  %3 = load ptr, ptr %__begin1.023, align 8
  %m_phase.i = getelementptr inbounds i8, ptr %3, i64 16
  %4 = load i8, ptr %m_phase.i, align 8
  %5 = and i8 %4, 1
  %tobool.i.not = icmp eq i8 %5, 0
  br i1 %tobool.i.not, label %if.end, label %for.inc

if.end:                                           ; preds = %for.body
  %6 = load ptr, ptr %m_explanation, align 8
  %tobool.not.i = icmp eq ptr %6, null
  br i1 %tobool.not.i, label %_ZN6vectorIN3sat7literalELb0EjE5resetEv.exit, label %if.then.i

if.then.i:                                        ; preds = %if.end
  %arrayidx.i = getelementptr inbounds i8, ptr %6, i64 -4
  store i32 0, ptr %arrayidx.i, align 4
  br label %_ZN6vectorIN3sat7literalELb0EjE5resetEv.exit

_ZN6vectorIN3sat7literalELb0EjE5resetEv.exit:     ; preds = %if.end, %if.then.i
  %m_v1.i = getelementptr inbounds i8, ptr %3, i64 20
  %7 = load i32, ptr %m_v1.i, align 4
  %m_v2.i = getelementptr inbounds i8, ptr %3, i64 24
  %8 = load i32, ptr %m_v2.i, align 8
  %cmp7 = icmp eq i32 %7, %8
  br i1 %cmp7, label %if.then12, label %lor.rhs

lor.rhs:                                          ; preds = %_ZN6vectorIN3sat7literalELb0EjE5resetEv.exit
  %9 = load i32, ptr %m_timestamp.i, align 8
  %call.i = tail call noundef zeroext i1 @_ZN8dl_graphIN3smt24theory_special_relations7int_extEE22find_shortest_path_auxINS1_8relationEEEbiijRT_b(ptr noundef nonnull align 8 dereferenceable(368) %m_graph, i32 noundef %7, i32 noundef %8, i32 noundef %9, ptr noundef nonnull align 8 dereferenceable(552) %r, i1 noundef zeroext false)
  br i1 %call.i, label %if.then12, label %for.inc

if.then12:                                        ; preds = %_ZN6vectorIN3sat7literalELb0EjE5resetEv.exit, %lor.rhs
  %m_phase.i.le = getelementptr inbounds i8, ptr %3, i64 16
  %10 = load i32, ptr %3, align 8
  %11 = load i8, ptr %m_phase.i.le, align 8
  %12 = and i8 %11, 1
  %shl.i.i = shl i32 %10, 1
  %13 = xor i8 %12, 1
  %conv.i.i = zext nneg i8 %13 to i32
  %add.i.i = or disjoint i32 %shl.i.i, %conv.i.i
  %14 = load ptr, ptr %m_explanation, align 8
  %cmp.i = icmp eq ptr %14, null
  br i1 %cmp.i, label %if.then.i20, label %lor.lhs.false.i

lor.lhs.false.i:                                  ; preds = %if.then12
  %arrayidx.i18 = getelementptr inbounds i8, ptr %14, i64 -4
  %15 = load i32, ptr %arrayidx.i18, align 4
  %arrayidx4.i = getelementptr inbounds i8, ptr %14, i64 -8
  %16 = load i32, ptr %arrayidx4.i, align 4
  %cmp5.i = icmp eq i32 %15, %16
  br i1 %cmp5.i, label %if.then.i20, label %_ZN6vectorIN3sat7literalELb0EjE9push_backEOS1_.exit

if.then.i20:                                      ; preds = %lor.lhs.false.i, %if.then12
  tail call void @_ZN6vectorIN3sat7literalELb0EjE13expand_vectorEv(ptr noundef nonnull align 8 dereferenceable(8) %m_explanation)
  %.pre.i = load ptr, ptr %m_explanation, align 8
  %arrayidx8.phi.trans.insert.i = getelementptr inbounds i8, ptr %.pre.i, i64 -4
  %.pre1.i = load i32, ptr %arrayidx8.phi.trans.insert.i, align 4
  br label %_ZN6vectorIN3sat7literalELb0EjE9push_backEOS1_.exit

_ZN6vectorIN3sat7literalELb0EjE9push_backEOS1_.exit: ; preds = %lor.lhs.false.i, %if.then.i20
  %17 = phi i32 [ %.pre1.i, %if.then.i20 ], [ %15, %lor.lhs.false.i ]
  %18 = phi ptr [ %.pre.i, %if.then.i20 ], [ %14, %lor.lhs.false.i ]
  %idx.ext.i = zext i32 %17 to i64
  %add.ptr.i19 = getelementptr inbounds %"class.sat::literal", ptr %18, i64 %idx.ext.i
  store i32 %add.i.i, ptr %add.ptr.i19, align 4
  %19 = load ptr, ptr %m_explanation, align 8
  %arrayidx10.i = getelementptr inbounds i8, ptr %19, i64 -4
  %20 = load i32, ptr %arrayidx10.i, align 4
  %inc.i = add i32 %20, 1
  store i32 %inc.i, ptr %arrayidx10.i, align 4
  tail call void @_ZN3smt24theory_special_relations12set_conflictERNS0_8relationE(ptr noundef nonnull align 8 dereferenceable(145) %this, ptr noundef nonnull align 8 dereferenceable(552) %r)
  br label %return

for.inc:                                          ; preds = %lor.rhs, %for.body
  %incdec.ptr = getelementptr inbounds i8, ptr %__begin1.023, i64 8
  %cmp.not = icmp eq ptr %incdec.ptr, %add.ptr.i
  br i1 %cmp.not, label %return, label %for.body

return:                                           ; preds = %for.inc, %entry, %_ZN6vectorIPN3smt24theory_special_relations4atomELb0EjE3endEv.exit, %_ZN6vectorIN3sat7literalELb0EjE9push_backEOS1_.exit
  %retval.0 = phi i32 [ -1, %_ZN6vectorIN3sat7literalELb0EjE9push_backEOS1_.exit ], [ 1, %_ZN6vectorIPN3smt24theory_special_relations4atomELb0EjE3endEv.exit ], [ 1, %entry ], [ 1, %for.inc ]
  ret i32 %retval.0
}